target datalayout = "e-m:e-p270:32:32-p271:32:32-p272:64:64-i64:64-i128:128-f80:128-n8:16:32:64-S128"
target triple = "x86_64-pc-linux-gnu"

; Function Attrs: inlinehint nounwind sspstrong uwtable
define internal i32 @rb_id_to_serial(i64 noundef %0) #4 {
  %2 = alloca i32, align 4
  %3 = alloca i64, align 8
  store i64 %0, ptr %3, align 8, !tbaa !11
  %4 = load i64, ptr %3, align 8, !tbaa !11
  %5 = icmp ugt i64 %4, 170
  br i1 %5, label %6, label %10

6:                                                ; preds = %1
  %7 = load i64, ptr %3, align 8, !tbaa !11
  %8 = lshr i64 %7, 4
  %9 = trunc i64 %8 to i32
  store i32 %9, ptr %2, align 4
  br label %13

10:                                               ; preds = %1
  %11 = load i64, ptr %3, align 8, !tbaa !11
  %12 = trunc i64 %11 to i32
  store i32 %12, ptr %2, align 4
  br label %13

13:                                               ; preds = %10, %6
  %14 = load i32, ptr %2, align 4
  ret i32 %14
}

; Function Attrs: nounwind sspstrong uwtable
define internal i64 @get_id_entry(i64 noundef %0, i32 noundef %1) #0 {
  %3 = alloca i64, align 8
  %4 = alloca i32, align 4
  store i64 %0, ptr %3, align 8, !tbaa !11
  store i32 %1, ptr %4, align 4, !tbaa !21
  %5 = load i64, ptr %3, align 8, !tbaa !11
  %6 = call i32 @rb_id_to_serial(i64 noundef %5)
  %7 = load i64, ptr %3, align 8, !tbaa !11
  %8 = load i32, ptr %4, align 4, !tbaa !21
  %9 = call i64 @get_id_serial_entry(i32 noundef %6, i64 noundef %7, i32 noundef %8)
  ret i64 %9
}

; Function Attrs: nounwind sspstrong uwtable
define hidden i32 @rb_static_id_valid_p(i64 noundef %0) #0 {
  %2 = alloca i64, align 8
  store i64 %0, ptr %2, align 8, !tbaa !11
  %3 = load i64, ptr %2, align 8, !tbaa !11
  %4 = shl i64 %3, 8
  %5 = or i64 %4, 12
  %6 = load i64, ptr %2, align 8, !tbaa !11
  %7 = call i64 @get_id_entry(i64 noundef %6, i32 noundef 1)
  %8 = icmp eq i64 %5, %7
  %9 = zext i1 %8 to i32
  ret i32 %9
}