; Function Attrs: nounwind sspstrong uwtable
define hidden range(i32 0, 2) i32 @rb_static_id_valid_p(i64 noundef %0) local_unnamed_addr #0 {
  %2 = shl i64 %0, 8
  %3 = or disjoint i64 %2, 12
  %4 = icmp ugt i64 %0, 170
  %5 = lshr i64 %0, 4
  %.0.in.i.i = select i1 %4, i64 %5, i64 %0
  %.0.i.i = trunc i64 %.0.in.i.i to i32
  %6 = tail call fastcc i64 @get_id_serial_entry(i32 noundef %.0.i.i, i32 noundef 1)
  %7 = icmp eq i64 %3, %6
  %8 = zext i1 %7 to i32
  ret i32 %8
}